target datalayout = "e-m:e-p270:32:32-p271:32:32-p272:64:64-i64:64-i128:128-f80:128-n8:16:32:64-S128"
target triple = "x86_64-pc-linux-gnu"

%struct.ggml_opt_params = type { ptr, ptr, ptr, ptr, i32, i32, i32, ptr, ptr }

; Function Attrs: mustprogress nounwind uwtable
define void @ggml_opt_default_params(ptr dead_on_unwind noalias writable sret(%struct.ggml_opt_params) align 8 %0, ptr noundef %1, ptr noundef %2, ptr noundef %3, ptr noundef %4, i32 noundef %5) #7 {
  %7 = alloca ptr, align 8
  %8 = alloca ptr, align 8
  %9 = alloca ptr, align 8
  %10 = alloca ptr, align 8
  %11 = alloca i32, align 4
  store ptr %1, ptr %7, align 8, !tbaa !73
  store ptr %2, ptr %8, align 8, !tbaa !75
  store ptr %3, ptr %9, align 8, !tbaa !55
  store ptr %4, ptr %10, align 8, !tbaa !55
  store i32 %5, ptr %11, align 4, !tbaa !76
  %12 = getelementptr inbounds nuw %struct.ggml_opt_params, ptr %0, i32 0, i32 0
  %13 = load ptr, ptr %7, align 8, !tbaa !73
  store ptr %13, ptr %12, align 8, !tbaa !78
  %14 = getelementptr inbounds nuw %struct.ggml_opt_params, ptr %0, i32 0, i32 1
  %15 = load ptr, ptr %8, align 8, !tbaa !75
  store ptr %15, ptr %14, align 8, !tbaa !81
  %16 = getelementptr inbounds nuw %struct.ggml_opt_params, ptr %0, i32 0, i32 2
  %17 = load ptr, ptr %9, align 8, !tbaa !55
  store ptr %17, ptr %16, align 8, !tbaa !82
  %18 = getelementptr inbounds nuw %struct.ggml_opt_params, ptr %0, i32 0, i32 3
  %19 = load ptr, ptr %10, align 8, !tbaa !55
  store ptr %19, ptr %18, align 8, !tbaa !83
  %20 = getelementptr inbounds nuw %struct.ggml_opt_params, ptr %0, i32 0, i32 4
  %21 = load i32, ptr %11, align 4, !tbaa !76
  store i32 %21, ptr %20, align 8, !tbaa !84
  %22 = getelementptr inbounds nuw %struct.ggml_opt_params, ptr %0, i32 0, i32 5
  store i32 2, ptr %22, align 4, !tbaa !85
  %23 = getelementptr inbounds nuw %struct.ggml_opt_params, ptr %0, i32 0, i32 6
  store i32 1, ptr %23, align 8, !tbaa !86
  %24 = getelementptr inbounds nuw %struct.ggml_opt_params, ptr %0, i32 0, i32 7
  store ptr @ggml_opt_get_default_optimizer_params, ptr %24, align 8, !tbaa !87
  %25 = getelementptr inbounds nuw %struct.ggml_opt_params, ptr %0, i32 0, i32 8
  store ptr null, ptr %25, align 8, !tbaa !88
  ret void
}