; Function Attrs: mustprogress nofree norecurse nosync nounwind willreturn memory(argmem: write) uwtable
define void @ggml_opt_default_params(ptr dead_on_unwind noalias writable writeonly sret(%struct.ggml_opt_params) align 8 captures(none) initializes((0, 44), (48, 64)) %0, ptr noundef %1, ptr noundef %2, ptr noundef %3, ptr noundef %4, i32 noundef %5) local_unnamed_addr #8 {
  store ptr %1, ptr %0, align 8, !tbaa !53
  %7 = getelementptr inbounds nuw i8, ptr %0, i64 8
  store ptr %2, ptr %7, align 8, !tbaa !58
  %8 = getelementptr inbounds nuw i8, ptr %0, i64 16
  store ptr %3, ptr %8, align 8, !tbaa !59
  %9 = getelementptr inbounds nuw i8, ptr %0, i64 24
  store ptr %4, ptr %9, align 8, !tbaa !60
  %10 = getelementptr inbounds nuw i8, ptr %0, i64 32
  store i32 %5, ptr %10, align 8, !tbaa !61
  %11 = getelementptr inbounds nuw i8, ptr %0, i64 36
  store i32 2, ptr %11, align 4, !tbaa !62
  %12 = getelementptr inbounds nuw i8, ptr %0, i64 40
  store i32 1, ptr %12, align 8, !tbaa !63
  %13 = getelementptr inbounds nuw i8, ptr %0, i64 48
  store ptr @ggml_opt_get_default_optimizer_params, ptr %13, align 8, !tbaa !64
  %14 = getelementptr inbounds nuw i8, ptr %0, i64 56
  store ptr null, ptr %14, align 8, !tbaa !65
  ret void
}